; Function Attrs: mustprogress nounwind uwtable
define hidden noundef ptr @_ZN4llvm16InstCombinerImpl14visitVAEndInstERNS_9VAEndInstE(ptr noundef nonnull align 8 dereferenceable(1088) %0, ptr noundef nonnull align 8 dereferenceable(88) %1) local_unnamed_addr #0 align 2 {
  %3 = alloca %"class.std::function.77", align 8
  %4 = getelementptr inbounds nuw i8, ptr %3, i64 16
  %5 = getelementptr inbounds nuw i8, ptr %3, i64 24
  call void @llvm.memset.p0.i64(ptr noundef nonnull align 8 dereferenceable(16) %3, i8 0, i64 16, i1 false)
  store ptr @"_ZNSt17_Function_handlerIFbRKN4llvm13IntrinsicInstEEZNS0_16InstCombinerImpl14visitVAEndInstERNS0_9VAEndInstEE3$_0E9_M_invokeERKSt9_Any_dataS3_", ptr %5, align 8
  store ptr @"_ZNSt17_Function_handlerIFbRKN4llvm13IntrinsicInstEEZNS0_16InstCombinerImpl14visitVAEndInstERNS0_9VAEndInstEE3$_0E10_M_managerERSt9_Any_dataRKSA_St18_Manager_operation", ptr %4, align 8
  %6 = call fastcc noundef zeroext i1 @_ZL25removeTriviallyEmptyRangeRN4llvm13IntrinsicInstERNS_16InstCombinerImplESt8functionIFbRKS0_EE(ptr noundef nonnull align 8 dereferenceable(88) %1, ptr noundef nonnull align 8 dereferenceable(1088) %0, ptr noundef nonnull %3)
  %7 = load ptr, ptr %4, align 8
  %.not.i.i = icmp eq ptr %7, null
  br i1 %.not.i.i, label %_ZNSt8functionIFbRKN4llvm13IntrinsicInstEEED2Ev.exit, label %8

8:                                                ; preds = %2
  %9 = call noundef zeroext i1 %7(ptr noundef nonnull align 8 dereferenceable(16) %3, ptr noundef nonnull align 8 dereferenceable(16) %3, i32 noundef 3) #26
  br label %_ZNSt8functionIFbRKN4llvm13IntrinsicInstEEED2Ev.exit

_ZNSt8functionIFbRKN4llvm13IntrinsicInstEEED2Ev.exit: ; preds = %2, %8
  ret ptr null
}